target datalayout = "e-m:e-p270:32:32-p271:32:32-p272:64:64-i64:64-i128:128-f80:128-n8:16:32:64-S128"
target triple = "x86_64-pc-linux-gnu"

%struct.ClientData = type { ptr, i64, i64, i64, i32, i32, i32 }

; Function Attrs: nounwind sspstrong uwtable
define internal void @error_callback_(ptr noundef %0, i32 noundef %1, ptr noundef %2) #0 {
  %4 = alloca ptr, align 8
  %5 = alloca i32, align 4
  %6 = alloca ptr, align 8
  %7 = alloca ptr, align 8
  store ptr %0, ptr %4, align 8, !tbaa !34
  store i32 %1, ptr %5, align 4, !tbaa !13
  store ptr %2, ptr %6, align 8, !tbaa !34
  call void @llvm.lifetime.start.p0(i64 8, ptr %7) #3
  %8 = load ptr, ptr %6, align 8, !tbaa !34
  store ptr %8, ptr %7, align 8, !tbaa !34
  %9 = load ptr, ptr %7, align 8, !tbaa !34
  %10 = getelementptr inbounds nuw %struct.ClientData, ptr %9, i32 0, i32 5
  %11 = load i32, ptr %10, align 4, !tbaa !33
  %12 = icmp ne i32 %11, 0
  br i1 %12, label %19, label %13

13:                                               ; preds = %3
  %14 = load ptr, ptr %7, align 8, !tbaa !34
  %15 = getelementptr inbounds nuw %struct.ClientData, ptr %14, i32 0, i32 5
  store i32 1, ptr %15, align 4, !tbaa !33
  %16 = load i32, ptr %5, align 4, !tbaa !13
  %17 = load ptr, ptr %7, align 8, !tbaa !34
  %18 = getelementptr inbounds nuw %struct.ClientData, ptr %17, i32 0, i32 6
  store i32 %16, ptr %18, align 8, !tbaa !37
  br label %19

19:                                               ; preds = %13, %3
  call void @llvm.lifetime.end.p0(i64 8, ptr %7) #3
  ret void
}