; Function Attrs: mustprogress nofree norecurse nosync nounwind sspstrong willreturn memory(argmem: readwrite) uwtable
define internal void @error_callback_(ptr readnone captures(none) %0, i32 noundef %1, ptr noundef captures(none) %2) #3 {
  %4 = getelementptr inbounds nuw i8, ptr %2, i64 36
  %5 = load i32, ptr %4, align 4, !tbaa !21
  %.not = icmp eq i32 %5, 0
  br i1 %.not, label %6, label %8

6:                                                ; preds = %3
  store i32 1, ptr %4, align 4, !tbaa !21
  %7 = getelementptr inbounds nuw i8, ptr %2, i64 40
  store i32 %1, ptr %7, align 8, !tbaa !24
  br label %8

8:                                                ; preds = %6, %3
  ret void
}